; Function Attrs: nofree norecurse nosync nounwind memory(argmem: readwrite, inaccessiblemem: readwrite) uwtable
define internal void @avg4_c(ptr noundef captures(none) %0, i64 noundef %1, ptr noundef readonly captures(none) %2, i64 noundef %3, i32 noundef %4, i32 %5, i32 %6) #5 {
.split7:
  tail call void @llvm.experimental.noalias.scope.decl(metadata !126)
  tail call void @llvm.experimental.noalias.scope.decl(metadata !129)
  %7 = lshr i64 %1, 1
  %8 = lshr i64 %3, 1
  br label %.split

.split:                                           ; preds = %.split, %.split7
  %.019.i = phi i32 [ %4, %.split7 ], [ %18, %.split ]
  %.018.i = phi ptr [ %0, %.split7 ], [ %16, %.split ]
  %.017.i = phi ptr [ %2, %.split7 ], [ %17, %.split ]
  %9 = load i64, ptr %.018.i, align 8, !tbaa !8, !alias.scope !126, !noalias !129
  %10 = load i64, ptr %.017.i, align 1, !tbaa !8, !alias.scope !129, !noalias !126
  %11 = or i64 %10, %9
  %12 = xor i64 %10, %9
  %13 = lshr i64 %12, 1
  %14 = and i64 %13, 9223231297218904063
  %15 = sub i64 %11, %14
  store i64 %15, ptr %.018.i, align 8, !tbaa !8, !alias.scope !126, !noalias !129
  %16 = getelementptr inbounds nuw i16, ptr %.018.i, i64 %7
  %17 = getelementptr inbounds nuw i16, ptr %.017.i, i64 %8
  %18 = add nsw i32 %.019.i, -1
  %.not.i = icmp eq i32 %18, 0
  br i1 %.not.i, label %avg_c.exit, label %.split, !llvm.loop !94

avg_c.exit:                                       ; preds = %.split
  ret void
}